target datalayout = "e-m:e-p270:32:32-p271:32:32-p272:64:64-i64:64-i128:128-f80:128-n8:16:32:64-S128"
target triple = "x86_64-pc-linux-gnu"

; Function Attrs: nounwind uwtable
define internal i32 @experimental_hooks_prof_threshold_ctl(ptr noundef %0, ptr noundef %1, i64 noundef %2, ptr noundef %3, ptr noundef %4, ptr noundef %5, i64 noundef %6) #0 {
  %8 = alloca i32, align 4
  %9 = alloca ptr, align 8
  %10 = alloca ptr, align 8
  %11 = alloca i64, align 8
  %12 = alloca ptr, align 8
  %13 = alloca ptr, align 8
  %14 = alloca ptr, align 8
  %15 = alloca i64, align 8
  %16 = alloca i32, align 4
  %17 = alloca ptr, align 8
  %18 = alloca i64, align 8
  %19 = alloca i32, align 4
  %20 = alloca ptr, align 8
  store ptr %0, ptr %9, align 8, !tbaa !4
  store ptr %1, ptr %10, align 8, !tbaa !12
  store i64 %2, ptr %11, align 8, !tbaa !14
  store ptr %3, ptr %12, align 8, !tbaa !11
  store ptr %4, ptr %13, align 8, !tbaa !12
  store ptr %5, ptr %14, align 8, !tbaa !11
  store i64 %6, ptr %15, align 8, !tbaa !14
  call void @llvm.lifetime.start.p0(i64 4, ptr %16) #13
  %21 = load ptr, ptr %12, align 8, !tbaa !11
  %22 = icmp eq ptr %21, null
  br i1 %22, label %23, label %27

23:                                               ; preds = %7
  %24 = load ptr, ptr %14, align 8, !tbaa !11
  %25 = icmp eq ptr %24, null
  br i1 %25, label %26, label %27

26:                                               ; preds = %23
  store i32 22, ptr %16, align 4, !tbaa !20
  br label %87

27:                                               ; preds = %23, %7
  %28 = load ptr, ptr %12, align 8, !tbaa !11
  %29 = icmp ne ptr %28, null
  br i1 %29, label %30, label %65

30:                                               ; preds = %27
  call void @llvm.lifetime.start.p0(i64 8, ptr %17) #13
  %31 = call ptr @je_prof_threshold_hook_get()
  store ptr %31, ptr %17, align 8, !tbaa !11
  br label %32

32:                                               ; preds = %30
  %33 = load ptr, ptr %12, align 8, !tbaa !11
  %34 = icmp ne ptr %33, null
  br i1 %34, label %35, label %59

35:                                               ; preds = %32
  %36 = load ptr, ptr %13, align 8, !tbaa !12
  %37 = icmp ne ptr %36, null
  br i1 %37, label %38, label %59

38:                                               ; preds = %35
  %39 = load ptr, ptr %13, align 8, !tbaa !12
  %40 = load i64, ptr %39, align 8, !tbaa !14
  %41 = icmp ne i64 %40, 8
  br i1 %41, label %42, label %56

42:                                               ; preds = %38
  call void @llvm.lifetime.start.p0(i64 8, ptr %18) #13
  %43 = load ptr, ptr %13, align 8, !tbaa !12
  %44 = load i64, ptr %43, align 8, !tbaa !14
  %45 = icmp ule i64 8, %44
  br i1 %45, label %46, label %47

46:                                               ; preds = %42
  br label %50

47:                                               ; preds = %42
  %48 = load ptr, ptr %13, align 8, !tbaa !12
  %49 = load i64, ptr %48, align 8, !tbaa !14
  br label %50

50:                                               ; preds = %47, %46
  %51 = phi i64 [ 8, %46 ], [ %49, %47 ]
  store i64 %51, ptr %18, align 8, !tbaa !14
  %52 = load ptr, ptr %12, align 8, !tbaa !11
  %53 = load i64, ptr %18, align 8, !tbaa !14
  call void @llvm.memcpy.p0.p0.i64(ptr align 1 %52, ptr align 1 %17, i64 %53, i1 false)
  %54 = load i64, ptr %18, align 8, !tbaa !14
  %55 = load ptr, ptr %13, align 8, !tbaa !12
  store i64 %54, ptr %55, align 8, !tbaa !14
  store i32 22, ptr %16, align 4, !tbaa !20
  store i32 2, ptr %19, align 4
  call void @llvm.lifetime.end.p0(i64 8, ptr %18) #13
  br label %62

56:                                               ; preds = %38
  %57 = load ptr, ptr %17, align 8, !tbaa !11
  %58 = load ptr, ptr %12, align 8, !tbaa !11
  store ptr %57, ptr %58, align 8, !tbaa !11
  br label %59

59:                                               ; preds = %56, %35, %32
  br label %60

60:                                               ; preds = %59
  br label %61

61:                                               ; preds = %60
  store i32 0, ptr %19, align 4
  br label %62

62:                                               ; preds = %61, %50
  call void @llvm.lifetime.end.p0(i64 8, ptr %17) #13
  %63 = load i32, ptr %19, align 4
  switch i32 %63, label %89 [
    i32 0, label %64
    i32 2, label %87
  ]

64:                                               ; preds = %62
  br label %65

65:                                               ; preds = %64, %27
  %66 = load ptr, ptr %14, align 8, !tbaa !11
  %67 = icmp ne ptr %66, null
  br i1 %67, label %68, label %86

68:                                               ; preds = %65
  call void @llvm.lifetime.start.p0(i64 8, ptr %20) #13
  store ptr null, ptr %20, align 8, !tbaa !11
  br label %69

69:                                               ; preds = %68
  %70 = load ptr, ptr %14, align 8, !tbaa !11
  %71 = icmp ne ptr %70, null
  br i1 %71, label %72, label %79

72:                                               ; preds = %69
  %73 = load i64, ptr %15, align 8, !tbaa !14
  %74 = icmp ne i64 %73, 8
  br i1 %74, label %75, label %76

75:                                               ; preds = %72
  store i32 22, ptr %16, align 4, !tbaa !20
  store i32 2, ptr %19, align 4
  br label %83

76:                                               ; preds = %72
  %77 = load ptr, ptr %14, align 8, !tbaa !11
  %78 = load ptr, ptr %77, align 8, !tbaa !11
  store ptr %78, ptr %20, align 8, !tbaa !11
  br label %79

79:                                               ; preds = %76, %69
  br label %80

80:                                               ; preds = %79
  br label %81

81:                                               ; preds = %80
  %82 = load ptr, ptr %20, align 8, !tbaa !11
  call void @je_prof_threshold_hook_set(ptr noundef %82)
  store i32 0, ptr %19, align 4
  br label %83

83:                                               ; preds = %75, %81
  call void @llvm.lifetime.end.p0(i64 8, ptr %20) #13
  %84 = load i32, ptr %19, align 4
  switch i32 %84, label %89 [
    i32 0, label %85
    i32 2, label %87
  ]

85:                                               ; preds = %83
  br label %86

86:                                               ; preds = %85, %65
  store i32 0, ptr %16, align 4, !tbaa !20
  br label %87

87:                                               ; preds = %86, %83, %62, %26
  %88 = load i32, ptr %16, align 4, !tbaa !20
  store i32 %88, ptr %8, align 4
  store i32 1, ptr %19, align 4
  br label %89

89:                                               ; preds = %87, %83, %62
  call void @llvm.lifetime.end.p0(i64 4, ptr %16) #13
  %90 = load i32, ptr %8, align 4
  ret i32 %90
}